; Function Attrs: inlinehint nofree norecurse nounwind memory(argmem: readwrite, inaccessiblemem: readwrite) uwtable
define internal fastcc void @ForceZero(ptr noundef nonnull %0, i32 noundef range(i32 32, 129) %1) unnamed_addr #4 {
  %3 = ptrtoint ptr %0 to i64
  %4 = trunc i64 %3 to i32
  %5 = sub i32 0, %4
  %6 = and i32 %5, 7
  %7 = sub nuw nsw i32 %1, %6
  %.not24 = icmp eq i32 %6, 0
  br i1 %.not24, label %.lr.ph29.preheader, label %.lr.ph

.lr.ph29.preheader:                               ; preds = %.lr.ph, %2
  %.01528.ph = phi ptr [ %0, %2 ], [ %9, %.lr.ph ]
  br label %.lr.ph29

.lr.ph:                                           ; preds = %2, %.lr.ph
  %.126 = phi i32 [ %8, %.lr.ph ], [ %6, %2 ]
  %.01625 = phi ptr [ %9, %.lr.ph ], [ %0, %2 ]
  %8 = add nsw i32 %.126, -1
  %9 = getelementptr inbounds nuw i8, ptr %.01625, i64 1
  store volatile i8 0, ptr %.01625, align 1, !tbaa !15
  %.not = icmp eq i32 %8, 0
  br i1 %.not, label %.lr.ph29.preheader, label %.lr.ph, !llvm.loop !27

.preheader:                                       ; preds = %.lr.ph29
  %.not2232 = icmp eq i32 %11, 0
  br i1 %.not2232, label %._crit_edge, label %.lr.ph35

.lr.ph29:                                         ; preds = %.lr.ph29.preheader, %.lr.ph29
  %.01528 = phi ptr [ %10, %.lr.ph29 ], [ %.01528.ph, %.lr.ph29.preheader ]
  %.01827 = phi i32 [ %11, %.lr.ph29 ], [ %7, %.lr.ph29.preheader ]
  %10 = getelementptr inbounds nuw i8, ptr %.01528, i64 8
  store volatile i64 0, ptr %.01528, align 8, !tbaa !11
  %11 = add nsw i32 %.01827, -8
  %12 = icmp ugt i32 %11, 7
  br i1 %12, label %.lr.ph29, label %.preheader, !llvm.loop !13

.lr.ph35:                                         ; preds = %.preheader, %.lr.ph35
  %.11734 = phi ptr [ %14, %.lr.ph35 ], [ %10, %.preheader ]
  %.11933 = phi i32 [ %13, %.lr.ph35 ], [ %11, %.preheader ]
  %13 = add i32 %.11933, -1
  %14 = getelementptr inbounds nuw i8, ptr %.11734, i64 1
  store volatile i8 0, ptr %.11734, align 1, !tbaa !15
  %.not22 = icmp eq i32 %13, 0
  br i1 %.not22, label %._crit_edge, label %.lr.ph35, !llvm.loop !16

._crit_edge:                                      ; preds = %.lr.ph35, %.preheader
  ret void
}